; Function Attrs: mustprogress nounwind uwtable
define internal void @"_ZZN5drjit8do_asyncIRZNK7mitsuba6Bitmap11write_asyncERKNS1_10filesystem4pathENS2_10FileFormatEiE3$_0EEP4TaskOT_PKPKSA_mP4PoolENUlPvE_8__invokeESK_"(ptr noundef %0) #6 align 2 personality ptr @__gxx_personality_v0 {
  %2 = icmp eq ptr %0, null
  br i1 %2, label %"_ZZN5drjit8do_asyncIRZNK7mitsuba6Bitmap11write_asyncERKNS1_10filesystem4pathENS2_10FileFormatEiE3$_0EEP4TaskOT_PKPKSA_mP4PoolENKUlPvE_clESK_.exit", label %3

3:                                                ; preds = %1
  %4 = load ptr, ptr %0, align 8
  %.not.i.i.i.i.i.i = icmp eq ptr %4, null
  br i1 %.not.i.i.i.i.i.i, label %"_ZZN5drjit8do_asyncIRZNK7mitsuba6Bitmap11write_asyncERKNS1_10filesystem4pathENS2_10FileFormatEiE3$_0EEP4TaskOT_PKPKSA_mP4PoolEN7PayloadD2Ev.exit.i", label %5

5:                                                ; preds = %3
  %6 = getelementptr inbounds i8, ptr %0, i64 8
  %7 = load ptr, ptr %6, align 8
  %.not6.i.i.i.i.i.i.i.i = icmp eq ptr %7, %4
  br i1 %.not6.i.i.i.i.i.i.i.i, label %_ZNSt3__16vectorINS_12basic_stringIcNS_11char_traitsIcEENS_9allocatorIcEEEENS4_IS6_EEE7__clearB8ne190000Ev.exit.i.i.i.i.i.i, label %.lr.ph.i.i.i.i.i.i.i.i

.lr.ph.i.i.i.i.i.i.i.i:                           ; preds = %5, %.lr.ph.i.i.i.i.i.i.i.i
  %.07.i.i.i.i.i.i.i.i = phi ptr [ %8, %.lr.ph.i.i.i.i.i.i.i.i ], [ %7, %5 ]
  %8 = getelementptr inbounds i8, ptr %.07.i.i.i.i.i.i.i.i, i64 -24
  tail call void @_ZNSt3__112basic_stringIcNS_11char_traitsIcEENS_9allocatorIcEEED1Ev(ptr noundef nonnull align 8 dereferenceable(24) %8) #36
  %.not.i.i.i.i.i.i.i.i = icmp eq ptr %8, %4
  br i1 %.not.i.i.i.i.i.i.i.i, label %_ZNSt3__16vectorINS_12basic_stringIcNS_11char_traitsIcEENS_9allocatorIcEEEENS4_IS6_EEE7__clearB8ne190000Ev.exit.i.loopexit.i.i.i.i.i, label %.lr.ph.i.i.i.i.i.i.i.i

_ZNSt3__16vectorINS_12basic_stringIcNS_11char_traitsIcEENS_9allocatorIcEEEENS4_IS6_EEE7__clearB8ne190000Ev.exit.i.loopexit.i.i.i.i.i: ; preds = %.lr.ph.i.i.i.i.i.i.i.i
  %.pre.i.i.i.i.i = load ptr, ptr %0, align 8
  br label %_ZNSt3__16vectorINS_12basic_stringIcNS_11char_traitsIcEENS_9allocatorIcEEEENS4_IS6_EEE7__clearB8ne190000Ev.exit.i.i.i.i.i.i

_ZNSt3__16vectorINS_12basic_stringIcNS_11char_traitsIcEENS_9allocatorIcEEEENS4_IS6_EEE7__clearB8ne190000Ev.exit.i.i.i.i.i.i: ; preds = %_ZNSt3__16vectorINS_12basic_stringIcNS_11char_traitsIcEENS_9allocatorIcEEEENS4_IS6_EEE7__clearB8ne190000Ev.exit.i.loopexit.i.i.i.i.i, %5
  %9 = phi ptr [ %.pre.i.i.i.i.i, %_ZNSt3__16vectorINS_12basic_stringIcNS_11char_traitsIcEENS_9allocatorIcEEEENS4_IS6_EEE7__clearB8ne190000Ev.exit.i.loopexit.i.i.i.i.i ], [ %4, %5 ]
  store ptr %4, ptr %6, align 8
  tail call void @_ZdlPv(ptr noundef %9) #35
  br label %"_ZZN5drjit8do_asyncIRZNK7mitsuba6Bitmap11write_asyncERKNS1_10filesystem4pathENS2_10FileFormatEiE3$_0EEP4TaskOT_PKPKSA_mP4PoolEN7PayloadD2Ev.exit.i"

"_ZZN5drjit8do_asyncIRZNK7mitsuba6Bitmap11write_asyncERKNS1_10filesystem4pathENS2_10FileFormatEiE3$_0EEP4TaskOT_PKPKSA_mP4PoolEN7PayloadD2Ev.exit.i": ; preds = %_ZNSt3__16vectorINS_12basic_stringIcNS_11char_traitsIcEENS_9allocatorIcEEEENS4_IS6_EEE7__clearB8ne190000Ev.exit.i.i.i.i.i.i, %3
  tail call void @_ZdlPv(ptr noundef nonnull %0) #35
  br label %"_ZZN5drjit8do_asyncIRZNK7mitsuba6Bitmap11write_asyncERKNS1_10filesystem4pathENS2_10FileFormatEiE3$_0EEP4TaskOT_PKPKSA_mP4PoolENKUlPvE_clESK_.exit"

"_ZZN5drjit8do_asyncIRZNK7mitsuba6Bitmap11write_asyncERKNS1_10filesystem4pathENS2_10FileFormatEiE3$_0EEP4TaskOT_PKPKSA_mP4PoolENKUlPvE_clESK_.exit": ; preds = %1, %"_ZZN5drjit8do_asyncIRZNK7mitsuba6Bitmap11write_asyncERKNS1_10filesystem4pathENS2_10FileFormatEiE3$_0EEP4TaskOT_PKPKSA_mP4PoolEN7PayloadD2Ev.exit.i"
  ret void
}